target datalayout = "e-m:e-p270:32:32-p271:32:32-p272:64:64-i64:64-i128:128-f80:128-n8:16:32:64-S128"
target triple = "x86_64-pc-linux-gnu"

%struct._lv_menu_t = type { %struct._lv_obj_t, ptr, ptr, ptr, ptr, ptr, ptr, ptr, ptr, ptr, ptr, ptr, ptr, %struct.lv_ll_t, i8, i8, i8 }
%struct._lv_obj_t = type { ptr, ptr, ptr, ptr, ptr, %struct.lv_area_t, i32, i16, i16 }
%struct.lv_area_t = type { i32, i32, i32, i32 }
%struct.lv_ll_t = type { i32, ptr, ptr }
%struct._lv_menu_history_t = type { ptr }

@lv_menu_sidebar_cont_class = constant { ptr, ptr, ptr, ptr, ptr, ptr, i32, i32, i8, i8, i8, [5 x i8] } { ptr @lv_obj_class, ptr null, ptr null, ptr null, ptr null, ptr null, i32 0, i32 0, i8 0, i8 0, i8 0, [5 x i8] zeroinitializer }, align 8
@lv_menu_sidebar_header_cont_class = constant { ptr, ptr, ptr, ptr, ptr, ptr, i32, i32, i8, i8, i8, [5 x i8] } { ptr @lv_obj_class, ptr null, ptr null, ptr null, ptr null, ptr null, i32 0, i32 0, i8 0, i8 0, i8 0, [5 x i8] zeroinitializer }, align 8
@.str.5 = private unnamed_addr constant [4 x i8] c"\EF\81\93\00", align 1

; Function Attrs: nounwind uwtable
define internal void @lv_menu_refr(ptr noundef %0) #0 {
  %2 = alloca ptr, align 8
  %3 = alloca ptr, align 8
  %4 = alloca ptr, align 8
  %5 = alloca ptr, align 8
  %6 = alloca ptr, align 8
  store ptr %0, ptr %2, align 8, !tbaa !3
  br label %7

7:                                                ; preds = %1
  br label %8

8:                                                ; preds = %7
  call void @llvm.lifetime.start.p0(i64 8, ptr %3) #3
  %9 = load ptr, ptr %2, align 8, !tbaa !3
  store ptr %9, ptr %3, align 8, !tbaa !3
  call void @llvm.lifetime.start.p0(i64 8, ptr %4) #3
  %10 = load ptr, ptr %3, align 8, !tbaa !3
  %11 = getelementptr inbounds nuw %struct._lv_menu_t, ptr %10, i32 0, i32 13
  store ptr %11, ptr %4, align 8, !tbaa !3
  call void @llvm.lifetime.start.p0(i64 8, ptr %5) #3
  %12 = load ptr, ptr %4, align 8, !tbaa !3
  %13 = call ptr @lv_ll_get_head(ptr noundef %12)
  store ptr %13, ptr %5, align 8, !tbaa !3
  call void @llvm.lifetime.start.p0(i64 8, ptr %6) #3
  store ptr null, ptr %6, align 8, !tbaa !3
  %14 = load ptr, ptr %5, align 8, !tbaa !3
  %15 = icmp ne ptr %14, null
  br i1 %15, label %16, label %27

16:                                               ; preds = %8
  %17 = load ptr, ptr %5, align 8, !tbaa !3
  %18 = getelementptr inbounds nuw %struct._lv_menu_history_t, ptr %17, i32 0, i32 0
  %19 = load ptr, ptr %18, align 8, !tbaa !33
  store ptr %19, ptr %6, align 8, !tbaa !3
  %20 = load ptr, ptr %4, align 8, !tbaa !3
  %21 = load ptr, ptr %5, align 8, !tbaa !3
  call void @lv_ll_remove(ptr noundef %20, ptr noundef %21)
  %22 = load ptr, ptr %5, align 8, !tbaa !3
  call void @lv_free(ptr noundef %22)
  %23 = load ptr, ptr %3, align 8, !tbaa !3
  %24 = getelementptr inbounds nuw %struct._lv_menu_t, ptr %23, i32 0, i32 14
  %25 = load i8, ptr %24, align 8, !tbaa !7
  %26 = add i8 %25, -1
  store i8 %26, ptr %24, align 8, !tbaa !7
  br label %27

27:                                               ; preds = %16, %8
  %28 = load ptr, ptr %2, align 8, !tbaa !3
  %29 = load ptr, ptr %6, align 8, !tbaa !3
  call void @lv_menu_set_page(ptr noundef %28, ptr noundef %29)
  call void @llvm.lifetime.end.p0(i64 8, ptr %6) #3
  call void @llvm.lifetime.end.p0(i64 8, ptr %5) #3
  call void @llvm.lifetime.end.p0(i64 8, ptr %4) #3
  call void @llvm.lifetime.end.p0(i64 8, ptr %3) #3
  ret void
}

; Function Attrs: nounwind uwtable
define void @lv_menu_set_sidebar_page(ptr noundef %0, ptr noundef %1) #0 {
  %3 = alloca ptr, align 8
  %4 = alloca ptr, align 8
  %5 = alloca ptr, align 8
  %6 = alloca ptr, align 8
  %7 = alloca ptr, align 8
  %8 = alloca ptr, align 8
  %9 = alloca ptr, align 8
  %10 = alloca ptr, align 8
  store ptr %0, ptr %3, align 8, !tbaa !3
  store ptr %1, ptr %4, align 8, !tbaa !3
  br label %11

11:                                               ; preds = %2
  br label %12

12:                                               ; preds = %11
  call void @llvm.lifetime.start.p0(i64 8, ptr %5) #3
  %13 = load ptr, ptr %3, align 8, !tbaa !3
  store ptr %13, ptr %5, align 8, !tbaa !3
  %14 = load ptr, ptr %4, align 8, !tbaa !3
  %15 = icmp ne ptr %14, null
  br i1 %15, label %16, label %81

16:                                               ; preds = %12
  %17 = load ptr, ptr %5, align 8, !tbaa !3
  %18 = getelementptr inbounds nuw %struct._lv_menu_t, ptr %17, i32 0, i32 16
  %19 = load i8, ptr %18, align 2
  %20 = and i8 %19, 1
  %21 = icmp ne i8 %20, 0
  br i1 %21, label %75, label %22

22:                                               ; preds = %16
  call void @llvm.lifetime.start.p0(i64 8, ptr %6) #3
  %23 = load ptr, ptr %3, align 8, !tbaa !3
  %24 = call ptr @lv_obj_class_create_obj(ptr noundef @lv_menu_sidebar_cont_class, ptr noundef %23)
  store ptr %24, ptr %6, align 8, !tbaa !3
  %25 = load ptr, ptr %6, align 8, !tbaa !3
  call void @lv_obj_class_init_obj(ptr noundef %25)
  %26 = load ptr, ptr %6, align 8, !tbaa !3
  call void @lv_obj_move_to_index(ptr noundef %26, i32 noundef 1)
  %27 = load ptr, ptr %6, align 8, !tbaa !3
  call void @lv_obj_set_size(ptr noundef %27, i32 noundef 536870942, i32 noundef 536871012)
  %28 = load ptr, ptr %6, align 8, !tbaa !3
  call void @lv_obj_set_flex_flow(ptr noundef %28, i32 noundef 1)
  %29 = load ptr, ptr %6, align 8, !tbaa !3
  call void @lv_obj_add_flag(ptr noundef %29, i32 noundef 16384)
  %30 = load ptr, ptr %6, align 8, !tbaa !3
  call void @lv_obj_remove_flag(ptr noundef %30, i32 noundef 2)
  %31 = load ptr, ptr %6, align 8, !tbaa !3
  %32 = load ptr, ptr %5, align 8, !tbaa !3
  %33 = getelementptr inbounds nuw %struct._lv_menu_t, ptr %32, i32 0, i32 7
  store ptr %31, ptr %33, align 8, !tbaa !16
  call void @llvm.lifetime.start.p0(i64 8, ptr %7) #3
  %34 = load ptr, ptr %6, align 8, !tbaa !3
  %35 = call ptr @lv_obj_class_create_obj(ptr noundef @lv_menu_sidebar_header_cont_class, ptr noundef %34)
  store ptr %35, ptr %7, align 8, !tbaa !3
  %36 = load ptr, ptr %7, align 8, !tbaa !3
  call void @lv_obj_class_init_obj(ptr noundef %36)
  %37 = load ptr, ptr %7, align 8, !tbaa !3
  call void @lv_obj_set_size(ptr noundef %37, i32 noundef 536871012, i32 noundef 1073741823)
  %38 = load ptr, ptr %7, align 8, !tbaa !3
  call void @lv_obj_set_flex_flow(ptr noundef %38, i32 noundef 0)
  %39 = load ptr, ptr %7, align 8, !tbaa !3
  call void @lv_obj_set_flex_align(ptr noundef %39, i32 noundef 0, i32 noundef 2, i32 noundef 2)
  %40 = load ptr, ptr %7, align 8, !tbaa !3
  call void @lv_obj_remove_flag(ptr noundef %40, i32 noundef 2)
  %41 = load ptr, ptr %7, align 8, !tbaa !3
  call void @lv_obj_add_flag(ptr noundef %41, i32 noundef 16384)
  %42 = load ptr, ptr %7, align 8, !tbaa !3
  %43 = load ptr, ptr %5, align 8, !tbaa !3
  %44 = getelementptr inbounds nuw %struct._lv_menu_t, ptr %43, i32 0, i32 9
  store ptr %42, ptr %44, align 8, !tbaa !17
  call void @llvm.lifetime.start.p0(i64 8, ptr %8) #3
  %45 = load ptr, ptr %5, align 8, !tbaa !3
  %46 = getelementptr inbounds nuw %struct._lv_menu_t, ptr %45, i32 0, i32 9
  %47 = load ptr, ptr %46, align 8, !tbaa !17
  %48 = call ptr @lv_button_create(ptr noundef %47)
  store ptr %48, ptr %8, align 8, !tbaa !3
  %49 = load ptr, ptr %8, align 8, !tbaa !3
  %50 = load ptr, ptr %5, align 8, !tbaa !3
  %51 = call ptr @lv_obj_add_event_cb(ptr noundef %49, ptr noundef @lv_menu_back_event_cb, i32 noundef 10, ptr noundef %50)
  %52 = load ptr, ptr %8, align 8, !tbaa !3
  call void @lv_obj_add_flag(ptr noundef %52, i32 noundef 16384)
  %53 = load ptr, ptr %8, align 8, !tbaa !3
  call void @lv_obj_set_flex_flow(ptr noundef %53, i32 noundef 0)
  %54 = load ptr, ptr %8, align 8, !tbaa !3
  %55 = load ptr, ptr %5, align 8, !tbaa !3
  %56 = getelementptr inbounds nuw %struct._lv_menu_t, ptr %55, i32 0, i32 10
  store ptr %54, ptr %56, align 8, !tbaa !18
  call void @llvm.lifetime.start.p0(i64 8, ptr %9) #3
  %57 = load ptr, ptr %5, align 8, !tbaa !3
  %58 = getelementptr inbounds nuw %struct._lv_menu_t, ptr %57, i32 0, i32 10
  %59 = load ptr, ptr %58, align 8, !tbaa !18
  %60 = call ptr @lv_image_create(ptr noundef %59)
  store ptr %60, ptr %9, align 8, !tbaa !3
  %61 = load ptr, ptr %9, align 8, !tbaa !3
  call void @lv_image_set_src(ptr noundef %61, ptr noundef @.str.5)
  call void @llvm.lifetime.start.p0(i64 8, ptr %10) #3
  %62 = load ptr, ptr %5, align 8, !tbaa !3
  %63 = getelementptr inbounds nuw %struct._lv_menu_t, ptr %62, i32 0, i32 9
  %64 = load ptr, ptr %63, align 8, !tbaa !17
  %65 = call ptr @lv_label_create(ptr noundef %64)
  store ptr %65, ptr %10, align 8, !tbaa !3
  %66 = load ptr, ptr %10, align 8, !tbaa !3
  call void @lv_obj_add_flag(ptr noundef %66, i32 noundef 1)
  %67 = load ptr, ptr %10, align 8, !tbaa !3
  %68 = load ptr, ptr %5, align 8, !tbaa !3
  %69 = getelementptr inbounds nuw %struct._lv_menu_t, ptr %68, i32 0, i32 11
  store ptr %67, ptr %69, align 8, !tbaa !19
  %70 = load ptr, ptr %5, align 8, !tbaa !3
  %71 = getelementptr inbounds nuw %struct._lv_menu_t, ptr %70, i32 0, i32 16
  %72 = load i8, ptr %71, align 2
  %73 = and i8 %72, -2
  %74 = or i8 %73, 1
  store i8 %74, ptr %71, align 2
  call void @llvm.lifetime.end.p0(i64 8, ptr %10) #3
  call void @llvm.lifetime.end.p0(i64 8, ptr %9) #3
  call void @llvm.lifetime.end.p0(i64 8, ptr %8) #3
  call void @llvm.lifetime.end.p0(i64 8, ptr %7) #3
  call void @llvm.lifetime.end.p0(i64 8, ptr %6) #3
  br label %75

75:                                               ; preds = %22, %16
  %76 = load ptr, ptr %4, align 8, !tbaa !3
  %77 = load ptr, ptr %5, align 8, !tbaa !3
  %78 = getelementptr inbounds nuw %struct._lv_menu_t, ptr %77, i32 0, i32 7
  %79 = load ptr, ptr %78, align 8, !tbaa !16
  call void @lv_obj_set_parent(ptr noundef %76, ptr noundef %79)
  %80 = load ptr, ptr %3, align 8, !tbaa !3
  call void @lv_menu_refr_sidebar_header_mode(ptr noundef %80)
  br label %103

81:                                               ; preds = %12
  %82 = load ptr, ptr %5, align 8, !tbaa !3
  %83 = getelementptr inbounds nuw %struct._lv_menu_t, ptr %82, i32 0, i32 16
  %84 = load i8, ptr %83, align 2
  %85 = and i8 %84, 1
  %86 = icmp ne i8 %85, 0
  br i1 %86, label %87, label %102

87:                                               ; preds = %81
  %88 = load ptr, ptr %5, align 8, !tbaa !3
  %89 = getelementptr inbounds nuw %struct._lv_menu_t, ptr %88, i32 0, i32 8
  %90 = load ptr, ptr %89, align 8, !tbaa !20
  %91 = load ptr, ptr %5, align 8, !tbaa !3
  %92 = getelementptr inbounds nuw %struct._lv_menu_t, ptr %91, i32 0, i32 1
  %93 = load ptr, ptr %92, align 8, !tbaa !15
  call void @lv_obj_set_parent(ptr noundef %90, ptr noundef %93)
  %94 = load ptr, ptr %5, align 8, !tbaa !3
  %95 = getelementptr inbounds nuw %struct._lv_menu_t, ptr %94, i32 0, i32 7
  %96 = load ptr, ptr %95, align 8, !tbaa !16
  call void @lv_obj_delete(ptr noundef %96)
  %97 = load ptr, ptr %5, align 8, !tbaa !3
  %98 = getelementptr inbounds nuw %struct._lv_menu_t, ptr %97, i32 0, i32 16
  %99 = load i8, ptr %98, align 2
  %100 = and i8 %99, -2
  %101 = or i8 %100, 0
  store i8 %101, ptr %98, align 2
  br label %102

102:                                              ; preds = %87, %81
  br label %103

103:                                              ; preds = %102, %75
  %104 = load ptr, ptr %4, align 8, !tbaa !3
  %105 = load ptr, ptr %5, align 8, !tbaa !3
  %106 = getelementptr inbounds nuw %struct._lv_menu_t, ptr %105, i32 0, i32 8
  store ptr %104, ptr %106, align 8, !tbaa !20
  %107 = load ptr, ptr %3, align 8, !tbaa !3
  call void @lv_menu_refr(ptr noundef %107)
  call void @llvm.lifetime.end.p0(i64 8, ptr %5) #3
  ret void
}