; Function Attrs: nounwind uwtable
define void @lv_menu_set_sidebar_page(ptr noundef %0, ptr noundef %1) local_unnamed_addr #0 {
  %.not = icmp eq ptr %1, null
  %3 = getelementptr inbounds nuw i8, ptr %0, i64 186
  %4 = load i8, ptr %3, align 2
  %5 = and i8 %4, 1
  %.not46 = icmp eq i8 %5, 0
  br i1 %.not, label %24, label %6

6:                                                ; preds = %2
  br i1 %.not46, label %7, label %21

7:                                                ; preds = %6
  %8 = tail call ptr @lv_obj_class_create_obj(ptr noundef nonnull @lv_menu_sidebar_cont_class, ptr noundef nonnull %0) #4
  tail call void @lv_obj_class_init_obj(ptr noundef %8) #4
  tail call void @lv_obj_move_to_index(ptr noundef %8, i32 noundef 1) #4
  tail call void @lv_obj_set_size(ptr noundef %8, i32 noundef 536870942, i32 noundef 536871012) #4
  tail call void @lv_obj_set_flex_flow(ptr noundef %8, i32 noundef 1) #4
  tail call void @lv_obj_add_flag(ptr noundef %8, i32 noundef 16384) #4
  tail call void @lv_obj_remove_flag(ptr noundef %8, i32 noundef 2) #4
  %9 = getelementptr inbounds nuw i8, ptr %0, i64 112
  store ptr %8, ptr %9, align 8, !tbaa !31
  %10 = tail call ptr @lv_obj_class_create_obj(ptr noundef nonnull @lv_menu_sidebar_header_cont_class, ptr noundef %8) #4
  tail call void @lv_obj_class_init_obj(ptr noundef %10) #4
  tail call void @lv_obj_set_size(ptr noundef %10, i32 noundef 536871012, i32 noundef 1073741823) #4
  tail call void @lv_obj_set_flex_flow(ptr noundef %10, i32 noundef 0) #4
  tail call void @lv_obj_set_flex_align(ptr noundef %10, i32 noundef 0, i32 noundef 2, i32 noundef 2) #4
  tail call void @lv_obj_remove_flag(ptr noundef %10, i32 noundef 2) #4
  tail call void @lv_obj_add_flag(ptr noundef %10, i32 noundef 16384) #4
  %11 = getelementptr inbounds nuw i8, ptr %0, i64 128
  store ptr %10, ptr %11, align 8, !tbaa !32
  %12 = tail call ptr @lv_button_create(ptr noundef %10) #4
  %13 = tail call ptr @lv_obj_add_event_cb(ptr noundef %12, ptr noundef nonnull @lv_menu_back_event_cb, i32 noundef 10, ptr noundef nonnull %0) #4
  tail call void @lv_obj_add_flag(ptr noundef %12, i32 noundef 16384) #4
  tail call void @lv_obj_set_flex_flow(ptr noundef %12, i32 noundef 0) #4
  %14 = getelementptr inbounds nuw i8, ptr %0, i64 136
  store ptr %12, ptr %14, align 8, !tbaa !30
  %15 = tail call ptr @lv_image_create(ptr noundef %12) #4
  tail call void @lv_image_set_src(ptr noundef %15, ptr noundef nonnull @.str.5) #4
  %16 = load ptr, ptr %11, align 8, !tbaa !32
  %17 = tail call ptr @lv_label_create(ptr noundef %16) #4
  tail call void @lv_obj_add_flag(ptr noundef %17, i32 noundef 1) #4
  %18 = getelementptr inbounds nuw i8, ptr %0, i64 144
  store ptr %17, ptr %18, align 8, !tbaa !33
  %19 = load i8, ptr %3, align 2
  %20 = or i8 %19, 1
  store i8 %20, ptr %3, align 2
  br label %21

21:                                               ; preds = %7, %6
  %22 = getelementptr inbounds nuw i8, ptr %0, i64 112
  %23 = load ptr, ptr %22, align 8, !tbaa !31
  tail call void @lv_obj_set_parent(ptr noundef nonnull %1, ptr noundef %23) #4
  tail call fastcc void @lv_menu_refr_sidebar_header_mode(ptr noundef nonnull %0)
  br label %34

24:                                               ; preds = %2
  br i1 %.not46, label %34, label %25

25:                                               ; preds = %24
  %26 = getelementptr inbounds nuw i8, ptr %0, i64 120
  %27 = load ptr, ptr %26, align 8, !tbaa !29
  %28 = getelementptr inbounds nuw i8, ptr %0, i64 64
  %29 = load ptr, ptr %28, align 8, !tbaa !14
  tail call void @lv_obj_set_parent(ptr noundef %27, ptr noundef %29) #4
  %30 = getelementptr inbounds nuw i8, ptr %0, i64 112
  %31 = load ptr, ptr %30, align 8, !tbaa !31
  tail call void @lv_obj_delete(ptr noundef %31) #4
  %32 = load i8, ptr %3, align 2
  %33 = and i8 %32, -2
  store i8 %33, ptr %3, align 2
  br label %34

34:                                               ; preds = %24, %25, %21
  %35 = getelementptr inbounds nuw i8, ptr %0, i64 120
  store ptr %1, ptr %35, align 8, !tbaa !29
  %36 = getelementptr inbounds nuw i8, ptr %0, i64 160
  %37 = tail call ptr @lv_ll_get_head(ptr noundef nonnull %36) #4
  %.not.i = icmp eq ptr %37, null
  br i1 %.not.i, label %lv_menu_refr.exit, label %38

38:                                               ; preds = %34
  %39 = load ptr, ptr %37, align 8, !tbaa !27
  tail call void @lv_ll_remove(ptr noundef nonnull %36, ptr noundef nonnull %37) #4
  tail call void @lv_free(ptr noundef nonnull %37) #4
  %40 = getelementptr inbounds nuw i8, ptr %0, i64 184
  %41 = load i8, ptr %40, align 8, !tbaa !3
  %42 = add i8 %41, -1
  store i8 %42, ptr %40, align 8, !tbaa !3
  br label %lv_menu_refr.exit

lv_menu_refr.exit:                                ; preds = %34, %38
  %.0.i = phi ptr [ %39, %38 ], [ null, %34 ]
  tail call void @lv_menu_set_page(ptr noundef nonnull %0, ptr noundef %.0.i)
  ret void
}